; Function Attrs: nounwind uwtable
define range(i32 -3, 1) i32 @IDASetJacTimesResFn(ptr noundef %0, ptr noundef %1) local_unnamed_addr #0 {
  %3 = icmp eq ptr %0, null
  br i1 %3, label %4, label %5

4:                                                ; preds = %2
  tail call void (ptr, i32, i32, ptr, ptr, ptr, ...) @IDAProcessError(ptr noundef null, i32 noundef -1, i32 noundef 1766, ptr noundef nonnull @__func__.IDASetJacTimesResFn, ptr noundef nonnull @.str, ptr noundef nonnull @.str.1) #13
  br label %idaLs_AccessLMem.exit.thread

5:                                                ; preds = %2
  %6 = getelementptr inbounds nuw i8, ptr %0, i64 1048
  %7 = load ptr, ptr %6, align 8, !tbaa !65
  %8 = icmp eq ptr %7, null
  br i1 %8, label %9, label %idaLs_AccessLMem.exit

9:                                                ; preds = %5
  tail call void (ptr, i32, i32, ptr, ptr, ptr, ...) @IDAProcessError(ptr noundef nonnull %0, i32 noundef -2, i32 noundef 1773, ptr noundef nonnull @__func__.IDASetJacTimesResFn, ptr noundef nonnull @.str, ptr noundef nonnull @.str.30) #13
  br label %idaLs_AccessLMem.exit.thread

idaLs_AccessLMem.exit:                            ; preds = %5
  %10 = getelementptr inbounds nuw i8, ptr %7, i64 288
  %11 = load i32, ptr %10, align 8, !tbaa !47
  %.not7 = icmp eq i32 %11, 0
  br i1 %.not7, label %12, label %13

12:                                               ; preds = %idaLs_AccessLMem.exit
  tail call void (ptr, i32, i32, ptr, ptr, ptr, ...) @IDAProcessError(ptr noundef nonnull %0, i32 noundef -3, i32 noundef 527, ptr noundef nonnull @__func__.IDASetJacTimesResFn, ptr noundef nonnull @.str, ptr noundef nonnull @.str.18) #13
  br label %idaLs_AccessLMem.exit.thread

13:                                               ; preds = %idaLs_AccessLMem.exit
  %.not8 = icmp eq ptr %1, null
  br i1 %.not8, label %16, label %14

14:                                               ; preds = %13
  %15 = getelementptr inbounds nuw i8, ptr %7, i64 312
  store ptr %1, ptr %15, align 8, !tbaa !51
  br label %idaLs_AccessLMem.exit.thread

16:                                               ; preds = %13
  %17 = getelementptr inbounds nuw i8, ptr %0, i64 16
  %18 = load ptr, ptr %17, align 8, !tbaa !50
  %19 = getelementptr inbounds nuw i8, ptr %7, i64 312
  store ptr %18, ptr %19, align 8, !tbaa !51
  br label %idaLs_AccessLMem.exit.thread

idaLs_AccessLMem.exit.thread:                     ; preds = %9, %4, %14, %16, %12
  %.0 = phi i32 [ -3, %12 ], [ 0, %16 ], [ 0, %14 ], [ -2, %9 ], [ -1, %4 ]
  ret i32 %.0
}